; Function Attrs: mustprogress uwtable
define hidden void @_Z4joinRKSt6vectorINSt7__cxx1112basic_stringIcSt11char_traitsIcESaIcEEESaIS5_EEc(ptr dead_on_unwind noalias writable sret(%"class.std::__cxx11::basic_string") align 8 %0, ptr nocapture noundef nonnull readonly align 8 dereferenceable(24) %1, i8 noundef signext %2) local_unnamed_addr #3 personality ptr @__gxx_personality_v0 {
  %4 = alloca %"class.std::__cxx11::basic_ostringstream", align 8
  %5 = alloca %"class.std::__cxx11::basic_string", align 8
  %6 = alloca %"class.std::allocator.15", align 1
  %7 = load ptr, ptr %1, align 8
  %8 = getelementptr inbounds i8, ptr %1, i64 8
  %9 = load ptr, ptr %8, align 8
  call void @_ZNSaIcEC1Ev(ptr noundef nonnull align 1 dereferenceable(1) %6) #17
  invoke void @_ZNSt7__cxx1112basic_stringIcSt11char_traitsIcESaIcEEC1EmcRKS3_(ptr noundef nonnull align 8 dereferenceable(32) %5, i64 noundef 1, i8 noundef signext %2, ptr noundef nonnull align 1 dereferenceable(1) %6)
          to label %10 unwind label %19

10:                                               ; preds = %3
  call void @llvm.lifetime.start.p0(i64 376, ptr nonnull %4)
  invoke void @_ZNSt7__cxx1119basic_ostringstreamIcSt11char_traitsIcESaIcEEC1Ev(ptr noundef nonnull align 8 dereferenceable(112) %4)
          to label %.noexc unwind label %21

.noexc:                                           ; preds = %10
  %.not.i = icmp eq ptr %7, %9
  br i1 %.not.i, label %.loopexit7.i, label %.preheader.i

.preheader.i:                                     ; preds = %.noexc, %16
  %.sroa.03.0.i = phi ptr [ %13, %16 ], [ %7, %.noexc ]
  %11 = invoke noundef nonnull align 8 dereferenceable(8) ptr @_ZStlsIcSt11char_traitsIcESaIcEERSt13basic_ostreamIT_T0_ES7_RKNSt7__cxx1112basic_stringIS4_S5_T1_EE(ptr noundef nonnull align 8 dereferenceable(8) %4, ptr noundef nonnull align 8 dereferenceable(32) %.sroa.03.0.i)
          to label %12 unwind label %.loopexit.i, !noalias !33

12:                                               ; preds = %.preheader.i
  %13 = getelementptr inbounds i8, ptr %.sroa.03.0.i, i64 32
  %14 = icmp eq ptr %13, %9
  br i1 %14, label %.loopexit7.i, label %16

.loopexit.i:                                      ; preds = %16, %.preheader.i
  %lpad.loopexit.i = landingpad { ptr, i32 }
          cleanup
  br label %15

.loopexit.split-lp.i:                             ; preds = %.loopexit7.i
  %lpad.loopexit.split-lp.i = landingpad { ptr, i32 }
          cleanup
  br label %15

15:                                               ; preds = %.loopexit.split-lp.i, %.loopexit.i
  %lpad.phi.i = phi { ptr, i32 } [ %lpad.loopexit.i, %.loopexit.i ], [ %lpad.loopexit.split-lp.i, %.loopexit.split-lp.i ]
  call void @_ZNSt7__cxx1119basic_ostringstreamIcSt11char_traitsIcESaIcEED1Ev(ptr noundef nonnull align 8 dereferenceable(112) %4) #17
  br label %.body

16:                                               ; preds = %12
  %17 = invoke noundef nonnull align 8 dereferenceable(8) ptr @_ZStlsIcSt11char_traitsIcESaIcEERSt13basic_ostreamIT_T0_ES7_RKNSt7__cxx1112basic_stringIS4_S5_T1_EE(ptr noundef nonnull align 8 dereferenceable(8) %4, ptr noundef nonnull align 8 dereferenceable(32) %5)
          to label %.preheader.i unwind label %.loopexit.i, !noalias !33, !llvm.loop !36

.loopexit7.i:                                     ; preds = %12, %.noexc
  invoke void @_ZNKSt7__cxx1119basic_ostringstreamIcSt11char_traitsIcESaIcEE3strEv(ptr dead_on_unwind writable sret(%"class.std::__cxx11::basic_string") align 8 %0, ptr noundef nonnull align 8 dereferenceable(112) %4)
          to label %18 unwind label %.loopexit.split-lp.i

18:                                               ; preds = %.loopexit7.i
  call void @_ZNSt7__cxx1119basic_ostringstreamIcSt11char_traitsIcESaIcEED1Ev(ptr noundef nonnull align 8 dereferenceable(112) %4) #17
  call void @llvm.lifetime.end.p0(i64 376, ptr nonnull %4)
  call void @_ZNSt7__cxx1112basic_stringIcSt11char_traitsIcESaIcEED1Ev(ptr noundef nonnull align 8 dereferenceable(32) %5) #17
  call void @_ZNSaIcED1Ev(ptr noundef nonnull align 1 dereferenceable(1) %6) #17
  ret void

19:                                               ; preds = %3
  %20 = landingpad { ptr, i32 }
          cleanup
  br label %23

21:                                               ; preds = %10
  %22 = landingpad { ptr, i32 }
          cleanup
  br label %.body

.body:                                            ; preds = %15, %21
  %eh.lpad-body = phi { ptr, i32 } [ %22, %21 ], [ %lpad.phi.i, %15 ]
  call void @_ZNSt7__cxx1112basic_stringIcSt11char_traitsIcESaIcEED1Ev(ptr noundef nonnull align 8 dereferenceable(32) %5) #17
  br label %23

23:                                               ; preds = %.body, %19
  %.pn = phi { ptr, i32 } [ %eh.lpad-body, %.body ], [ %20, %19 ]
  call void @_ZNSaIcED1Ev(ptr noundef nonnull align 1 dereferenceable(1) %6) #17
  resume { ptr, i32 } %.pn
}